; Function Attrs: mustprogress uwtable
define noundef i32 @_ZN7RawRead8GetCRC50Ev(ptr noundef nonnull readonly align 8 captures(none) dereferenceable(64) %0) local_unnamed_addr #1 align 2 {
  %2 = getelementptr inbounds nuw i8, ptr %0, i64 40
  %3 = load i64, ptr %2, align 8, !tbaa !15
  %4 = icmp ult i64 %3, 5
  br i1 %4, label %11, label %5

5:                                                ; preds = %1
  %6 = load ptr, ptr %0, align 8, !tbaa !17
  %7 = getelementptr inbounds nuw i8, ptr %6, i64 4
  %8 = add i64 %3, -4
  %9 = tail call noundef i32 @_Z5CRC32jPKvm(i32 noundef -1, ptr noundef nonnull %7, i64 noundef %8)
  %10 = xor i32 %9, -1
  br label %11

11:                                               ; preds = %1, %5
  %.0 = phi i32 [ %10, %5 ], [ -1, %1 ]
  ret i32 %.0
}